target datalayout = "e-m:e-p270:32:32-p271:32:32-p272:64:64-i64:64-i128:128-f80:128-n8:16:32:64-S128"
target triple = "x86_64-pc-linux-gnu"

%struct.ForEachState = type { ptr, i32 }
%union.ListCell = type { ptr }
%struct.List = type { i32, i32, i32, ptr, [0 x %union.ListCell] }
%struct.Expr = type { i32 }
%struct.Node = type { i32 }
%struct.BoolExpr = type { %struct.Expr, i32, ptr, i32 }
%struct.OpExpr = type { %struct.Expr, i32, i32, i32, i8, i32, i32, ptr, i32 }

; Function Attrs: inlinehint nounwind uwtable
define internal ptr @list_nth_cell(ptr noundef %0, i32 noundef %1) #5 {
  %3 = alloca ptr, align 8
  %4 = alloca i32, align 4
  store ptr %0, ptr %3, align 8
  store i32 %1, ptr %4, align 4
  %5 = load ptr, ptr %3, align 8
  %6 = getelementptr inbounds nuw %struct.List, ptr %5, i32 0, i32 3
  %7 = load ptr, ptr %6, align 8
  %8 = load i32, ptr %4, align 4
  %9 = sext i32 %8 to i64
  %10 = getelementptr inbounds %union.ListCell, ptr %7, i64 %9
  ret ptr %10
}

; Function Attrs: inlinehint nounwind uwtable
define internal i32 @list_length(ptr noundef %0) #5 {
  %2 = alloca ptr, align 8
  store ptr %0, ptr %2, align 8
  %3 = load ptr, ptr %2, align 8
  %4 = icmp ne ptr %3, null
  br i1 %4, label %5, label %9

5:                                                ; preds = %1
  %6 = load ptr, ptr %2, align 8
  %7 = getelementptr inbounds nuw %struct.List, ptr %6, i32 0, i32 1
  %8 = load i32, ptr %7, align 4
  br label %10

9:                                                ; preds = %1
  br label %10

10:                                               ; preds = %9, %5
  %11 = phi i32 [ %8, %5 ], [ 0, %9 ]
  ret i32 %11
}

; Function Attrs: inlinehint nounwind uwtable
define internal zeroext i1 @is_andclause(ptr noundef %0) #5 {
  %2 = alloca ptr, align 8
  store ptr %0, ptr %2, align 8
  %3 = load ptr, ptr %2, align 8
  %4 = icmp ne ptr %3, null
  br i1 %4, label %5, label %15

5:                                                ; preds = %1
  %6 = load ptr, ptr %2, align 8
  %7 = getelementptr inbounds nuw %struct.Node, ptr %6, i32 0, i32 0
  %8 = load i32, ptr %7, align 4
  %9 = icmp eq i32 %8, 21
  br i1 %9, label %10, label %15

10:                                               ; preds = %5
  %11 = load ptr, ptr %2, align 8
  %12 = getelementptr inbounds nuw %struct.BoolExpr, ptr %11, i32 0, i32 1
  %13 = load i32, ptr %12, align 4
  %14 = icmp eq i32 %13, 0
  br label %15

15:                                               ; preds = %10, %5, %1
  %16 = phi i1 [ false, %5 ], [ false, %1 ], [ %14, %10 ]
  ret i1 %16
}

; Function Attrs: nounwind uwtable
define internal zeroext i1 @test_opexpr_is_hashable(ptr noundef %0, ptr noundef %1) #0 {
  %3 = alloca i1, align 1
  %4 = alloca ptr, align 8
  %5 = alloca ptr, align 8
  store ptr %0, ptr %4, align 8
  store ptr %1, ptr %5, align 8
  %6 = load ptr, ptr %4, align 8
  %7 = call zeroext i1 @hash_ok_operator(ptr noundef %6)
  br i1 %7, label %9, label %8

8:                                                ; preds = %2
  store i1 false, ptr %3, align 1
  br label %34

9:                                                ; preds = %2
  %10 = load ptr, ptr %4, align 8
  %11 = getelementptr inbounds nuw %struct.OpExpr, ptr %10, i32 0, i32 7
  %12 = load ptr, ptr %11, align 8
  %13 = call i32 @list_length(ptr noundef %12)
  %14 = icmp ne i32 %13, 2
  br i1 %14, label %15, label %16

15:                                               ; preds = %9
  store i1 false, ptr %3, align 1
  br label %34

16:                                               ; preds = %9
  %17 = load ptr, ptr %4, align 8
  %18 = getelementptr inbounds nuw %struct.OpExpr, ptr %17, i32 0, i32 7
  %19 = load ptr, ptr %18, align 8
  %20 = call ptr @list_nth_cell(ptr noundef %19, i32 noundef 0)
  %21 = load ptr, ptr %20, align 8
  %22 = load ptr, ptr %5, align 8
  %23 = call zeroext i1 @contain_exec_param(ptr noundef %21, ptr noundef %22)
  br i1 %23, label %24, label %25

24:                                               ; preds = %16
  store i1 false, ptr %3, align 1
  br label %34

25:                                               ; preds = %16
  %26 = load ptr, ptr %4, align 8
  %27 = getelementptr inbounds nuw %struct.OpExpr, ptr %26, i32 0, i32 7
  %28 = load ptr, ptr %27, align 8
  %29 = call ptr @list_nth_cell(ptr noundef %28, i32 noundef 1)
  %30 = load ptr, ptr %29, align 8
  %31 = call zeroext i1 @contain_var_clause(ptr noundef %30)
  br i1 %31, label %32, label %33

32:                                               ; preds = %25
  store i1 false, ptr %3, align 1
  br label %34

33:                                               ; preds = %25
  store i1 true, ptr %3, align 1
  br label %34

34:                                               ; preds = %33, %32, %24, %15, %8
  %35 = load i1, ptr %3, align 1
  ret i1 %35
}

; Function Attrs: nounwind uwtable
define internal zeroext i1 @testexpr_is_hashable(ptr noundef %0, ptr noundef %1) #0 {
  %3 = alloca i1, align 1
  %4 = alloca ptr, align 8
  %5 = alloca ptr, align 8
  %6 = alloca ptr, align 8
  %7 = alloca %struct.ForEachState, align 8
  %8 = alloca i32, align 4
  %9 = alloca ptr, align 8
  store ptr %0, ptr %4, align 8
  store ptr %1, ptr %5, align 8
  %10 = load ptr, ptr %4, align 8
  %11 = icmp ne ptr %10, null
  br i1 %11, label %12, label %23

12:                                               ; preds = %2
  %13 = load ptr, ptr %4, align 8
  %14 = getelementptr inbounds nuw %struct.Node, ptr %13, i32 0, i32 0
  %15 = load i32, ptr %14, align 4
  %16 = icmp eq i32 %15, 17
  br i1 %16, label %17, label %23

17:                                               ; preds = %12
  %18 = load ptr, ptr %4, align 8
  %19 = load ptr, ptr %5, align 8
  %20 = call zeroext i1 @test_opexpr_is_hashable(ptr noundef %18, ptr noundef %19)
  br i1 %20, label %21, label %22

21:                                               ; preds = %17
  store i1 true, ptr %3, align 1
  br label %86

22:                                               ; preds = %17
  br label %85

23:                                               ; preds = %12, %2
  %24 = load ptr, ptr %4, align 8
  %25 = call zeroext i1 @is_andclause(ptr noundef %24)
  br i1 %25, label %26, label %84

26:                                               ; preds = %23
  call void @llvm.lifetime.start.p0(i64 8, ptr %6) #8
  call void @llvm.lifetime.start.p0(i64 16, ptr %7) #8
  %27 = getelementptr inbounds nuw %struct.ForEachState, ptr %7, i32 0, i32 0
  %28 = load ptr, ptr %4, align 8
  %29 = getelementptr inbounds nuw %struct.BoolExpr, ptr %28, i32 0, i32 2
  %30 = load ptr, ptr %29, align 8
  store ptr %30, ptr %27, align 8
  %31 = getelementptr inbounds nuw %struct.ForEachState, ptr %7, i32 0, i32 1
  store i32 0, ptr %31, align 8
  %32 = getelementptr i8, ptr %7, i64 12
  call void @llvm.memset.p0.i64(ptr align 4 %32, i8 0, i64 4, i1 false)
  br label %33

33:                                               ; preds = %76, %26
  %34 = getelementptr inbounds nuw %struct.ForEachState, ptr %7, i32 0, i32 0
  %35 = load ptr, ptr %34, align 8
  %36 = icmp ne ptr %35, null
  br i1 %36, label %37, label %54

37:                                               ; preds = %33
  %38 = getelementptr inbounds nuw %struct.ForEachState, ptr %7, i32 0, i32 1
  %39 = load i32, ptr %38, align 8
  %40 = getelementptr inbounds nuw %struct.ForEachState, ptr %7, i32 0, i32 0
  %41 = load ptr, ptr %40, align 8
  %42 = getelementptr inbounds nuw %struct.List, ptr %41, i32 0, i32 1
  %43 = load i32, ptr %42, align 4
  %44 = icmp slt i32 %39, %43
  br i1 %44, label %45, label %54

45:                                               ; preds = %37
  %46 = getelementptr inbounds nuw %struct.ForEachState, ptr %7, i32 0, i32 0
  %47 = load ptr, ptr %46, align 8
  %48 = getelementptr inbounds nuw %struct.List, ptr %47, i32 0, i32 3
  %49 = load ptr, ptr %48, align 8
  %50 = getelementptr inbounds nuw %struct.ForEachState, ptr %7, i32 0, i32 1
  %51 = load i32, ptr %50, align 8
  %52 = sext i32 %51 to i64
  %53 = getelementptr inbounds %union.ListCell, ptr %49, i64 %52
  store ptr %53, ptr %6, align 8
  br label %55

54:                                               ; preds = %37, %33
  store ptr null, ptr %6, align 8
  br label %55

55:                                               ; preds = %54, %45
  %56 = phi i32 [ 1, %45 ], [ 0, %54 ]
  %57 = icmp ne i32 %56, 0
  br i1 %57, label %59, label %58

58:                                               ; preds = %55
  store i32 2, ptr %8, align 4
  br label %80

59:                                               ; preds = %55
  call void @llvm.lifetime.start.p0(i64 8, ptr %9) #8
  %60 = load ptr, ptr %6, align 8
  %61 = load ptr, ptr %60, align 8
  store ptr %61, ptr %9, align 8
  %62 = load ptr, ptr %9, align 8
  %63 = getelementptr inbounds nuw %struct.Node, ptr %62, i32 0, i32 0
  %64 = load i32, ptr %63, align 4
  %65 = icmp eq i32 %64, 17
  br i1 %65, label %67, label %66

66:                                               ; preds = %59
  store i1 false, ptr %3, align 1
  store i32 1, ptr %8, align 4
  br label %73

67:                                               ; preds = %59
  %68 = load ptr, ptr %9, align 8
  %69 = load ptr, ptr %5, align 8
  %70 = call zeroext i1 @test_opexpr_is_hashable(ptr noundef %68, ptr noundef %69)
  br i1 %70, label %72, label %71

71:                                               ; preds = %67
  store i1 false, ptr %3, align 1
  store i32 1, ptr %8, align 4
  br label %73

72:                                               ; preds = %67
  store i32 0, ptr %8, align 4
  br label %73

73:                                               ; preds = %72, %71, %66
  call void @llvm.lifetime.end.p0(i64 8, ptr %9) #8
  %74 = load i32, ptr %8, align 4
  switch i32 %74, label %80 [
    i32 0, label %75
  ]

75:                                               ; preds = %73
  br label %76

76:                                               ; preds = %75
  %77 = getelementptr inbounds nuw %struct.ForEachState, ptr %7, i32 0, i32 1
  %78 = load i32, ptr %77, align 8
  %79 = add i32 %78, 1
  store i32 %79, ptr %77, align 8
  br label %33, !llvm.loop !34

80:                                               ; preds = %73, %58
  call void @llvm.lifetime.end.p0(i64 16, ptr %7) #8
  %81 = load i32, ptr %8, align 4
  switch i32 %81, label %83 [
    i32 2, label %82
  ]

82:                                               ; preds = %80
  store i1 true, ptr %3, align 1
  store i32 1, ptr %8, align 4
  br label %83

83:                                               ; preds = %82, %80
  call void @llvm.lifetime.end.p0(i64 8, ptr %6) #8
  br label %86

84:                                               ; preds = %23
  br label %85

85:                                               ; preds = %84, %22
  store i1 false, ptr %3, align 1
  br label %86

86:                                               ; preds = %85, %83, %21
  %87 = load i1, ptr %3, align 1
  ret i1 %87
}