; Function Attrs: nounwind uwtable
define internal fastcc noundef zeroext i1 @testexpr_is_hashable(ptr noundef readonly captures(address_is_null) %0, ptr noundef %1) unnamed_addr #0 {
  %.not = icmp eq ptr %0, null
  br i1 %.not, label %test_opexpr_is_hashable.exit.thread, label %3

3:                                                ; preds = %2
  %4 = load i32, ptr %0, align 4
  switch i32 %4, label %test_opexpr_is_hashable.exit.thread [
    i32 17, label %5
    i32 21, label %.split
  ]

5:                                                ; preds = %3
  %6 = getelementptr i8, ptr %0, i64 4
  %.val7.i = load i32, ptr %6, align 4
  %7 = getelementptr i8, ptr %0, i64 32
  %.val8.i = load ptr, ptr %7, align 8
  %8 = tail call fastcc zeroext i1 @hash_ok_operator(i32 %.val7.i, ptr %.val8.i)
  br i1 %8, label %9, label %test_opexpr_is_hashable.exit.thread

9:                                                ; preds = %5
  %10 = load ptr, ptr %7, align 8
  %.not.i.i = icmp eq ptr %10, null
  br i1 %.not.i.i, label %test_opexpr_is_hashable.exit.thread, label %list_length.exit.i

list_length.exit.i:                               ; preds = %9
  %11 = getelementptr inbounds nuw i8, ptr %10, i64 4
  %12 = load i32, ptr %11, align 4
  %.not.i26 = icmp eq i32 %12, 2
  br i1 %.not.i26, label %13, label %test_opexpr_is_hashable.exit.thread

13:                                               ; preds = %list_length.exit.i
  %14 = getelementptr i8, ptr %10, i64 16
  %.val6.i = load ptr, ptr %14, align 8
  %15 = load ptr, ptr %.val6.i, align 8
  %16 = tail call zeroext i1 @contain_exec_param(ptr noundef %15, ptr noundef %1) #10
  br i1 %16, label %test_opexpr_is_hashable.exit.thread, label %test_opexpr_is_hashable.exit

test_opexpr_is_hashable.exit:                     ; preds = %13
  %17 = load ptr, ptr %7, align 8
  %18 = getelementptr i8, ptr %17, i64 16
  %.val.i = load ptr, ptr %18, align 8
  %19 = getelementptr inbounds nuw i8, ptr %.val.i, i64 8
  %20 = load ptr, ptr %19, align 8
  %21 = tail call zeroext i1 @contain_var_clause(ptr noundef %20) #10
  br i1 %21, label %test_opexpr_is_hashable.exit.thread, label %.critedge

.split:                                           ; preds = %3
  %22 = getelementptr inbounds nuw i8, ptr %0, i64 4
  %23 = load i32, ptr %22, align 4
  %24 = icmp eq i32 %23, 0
  br i1 %24, label %25, label %test_opexpr_is_hashable.exit.thread

25:                                               ; preds = %.split
  %26 = getelementptr inbounds nuw i8, ptr %0, i64 8
  %27 = load ptr, ptr %26, align 8
  %28 = getelementptr inbounds nuw i8, ptr %27, i64 4
  %29 = getelementptr inbounds nuw i8, ptr %27, i64 16
  %.not23 = icmp eq ptr %27, null
  br i1 %.not23, label %.critedge, label %.lr.ph.split

.lr.ph.split:                                     ; preds = %25
  %30 = load i32, ptr %28, align 4
  %31 = icmp sgt i32 %30, 0
  br i1 %31, label %.lr.ph63, label %.critedge

32:                                               ; preds = %test_opexpr_is_hashable.exit36
  %indvars.iv.next = add nuw nsw i64 %indvars.iv, 1
  %33 = load i32, ptr %28, align 4
  %34 = sext i32 %33 to i64
  %35 = icmp slt i64 %indvars.iv.next, %34
  br i1 %35, label %.lr.ph63, label %.critedge

.lr.ph63:                                         ; preds = %.lr.ph.split, %32
  %indvars.iv = phi i64 [ %indvars.iv.next, %32 ], [ 0, %.lr.ph.split ]
  %36 = load ptr, ptr %29, align 8
  %37 = getelementptr inbounds nuw %union.ListCell, ptr %36, i64 %indvars.iv
  %38 = load ptr, ptr %37, align 8
  %39 = load i32, ptr %38, align 4
  %40 = icmp eq i32 %39, 17
  br i1 %40, label %41, label %.critedge

41:                                               ; preds = %.lr.ph63
  %42 = getelementptr i8, ptr %38, i64 4
  %.val7.i27 = load i32, ptr %42, align 4
  %43 = getelementptr i8, ptr %38, i64 32
  %.val8.i28 = load ptr, ptr %43, align 8
  %44 = tail call fastcc zeroext i1 @hash_ok_operator(i32 %.val7.i27, ptr %.val8.i28)
  br i1 %44, label %45, label %.critedge

45:                                               ; preds = %41
  %46 = load ptr, ptr %43, align 8
  %.not.i.i30 = icmp eq ptr %46, null
  br i1 %.not.i.i30, label %.critedge, label %list_length.exit.i31

list_length.exit.i31:                             ; preds = %45
  %47 = getelementptr inbounds nuw i8, ptr %46, i64 4
  %48 = load i32, ptr %47, align 4
  %.not.i32 = icmp eq i32 %48, 2
  br i1 %.not.i32, label %49, label %.critedge

49:                                               ; preds = %list_length.exit.i31
  %50 = getelementptr i8, ptr %46, i64 16
  %.val6.i33 = load ptr, ptr %50, align 8
  %51 = load ptr, ptr %.val6.i33, align 8
  %52 = tail call zeroext i1 @contain_exec_param(ptr noundef %51, ptr noundef %1) #10
  br i1 %52, label %.critedge, label %test_opexpr_is_hashable.exit36

test_opexpr_is_hashable.exit36:                   ; preds = %49
  %53 = load ptr, ptr %43, align 8
  %54 = getelementptr i8, ptr %53, i64 16
  %.val.i34 = load ptr, ptr %54, align 8
  %55 = getelementptr inbounds nuw i8, ptr %.val.i34, i64 8
  %56 = load ptr, ptr %55, align 8
  %57 = tail call zeroext i1 @contain_var_clause(ptr noundef %56) #10
  br i1 %57, label %.critedge, label %32

test_opexpr_is_hashable.exit.thread:              ; preds = %3, %2, %9, %13, %list_length.exit.i, %5, %.split, %test_opexpr_is_hashable.exit
  br label %.critedge

.critedge:                                        ; preds = %.lr.ph63, %test_opexpr_is_hashable.exit36, %32, %41, %list_length.exit.i31, %49, %45, %25, %.lr.ph.split, %test_opexpr_is_hashable.exit, %test_opexpr_is_hashable.exit.thread
  %.0 = phi i1 [ false, %test_opexpr_is_hashable.exit.thread ], [ true, %test_opexpr_is_hashable.exit ], [ true, %25 ], [ true, %.lr.ph.split ], [ false, %.lr.ph63 ], [ false, %test_opexpr_is_hashable.exit36 ], [ true, %32 ], [ false, %41 ], [ false, %list_length.exit.i31 ], [ false, %49 ], [ false, %45 ]
  ret i1 %.0
}